; Function Attrs: mustprogress nounwind uwtable
define hidden void @_ZN4llvh10TimerGroup8addTimerERNS_5TimerE(ptr noundef nonnull align 8 dereferenceable(112) %this, ptr noundef nonnull align 8 dereferenceable(160) %T) local_unnamed_addr #0 align 2 {
entry:
  %0 = load atomic i64, ptr @_ZL9TimerLock acquire, align 8
  %tobool.not.i = icmp eq i64 %0, 0
  br i1 %tobool.not.i, label %if.then.i, label %_ZN4llvh13ManagedStaticINS_3sys10SmartMutexILb1EEENS_14object_creatorIS3_EENS_14object_deleterIS3_EEEdeEv.exit

if.then.i:                                        ; preds = %entry
  tail call void @_ZNK4llvh17ManagedStaticBase21RegisterManagedStaticEPFPvvEPFvS1_E(ptr noundef nonnull align 8 dereferenceable(24) @_ZL9TimerLock, ptr noundef nonnull @_ZN4llvh14object_creatorINS_3sys10SmartMutexILb1EEEE4callEv, ptr noundef nonnull @_ZN4llvh14object_deleterINS_3sys10SmartMutexILb1EEEE4callEPv) #21
  br label %_ZN4llvh13ManagedStaticINS_3sys10SmartMutexILb1EEENS_14object_creatorIS3_EENS_14object_deleterIS3_EEEdeEv.exit

_ZN4llvh13ManagedStaticINS_3sys10SmartMutexILb1EEENS_14object_creatorIS3_EENS_14object_deleterIS3_EEEdeEv.exit: ; preds = %entry, %if.then.i
  %1 = load atomic i64, ptr @_ZL9TimerLock monotonic, align 8
  %atomic-temp.i.0.i1.i = inttoptr i64 %1 to ptr
  %call.i.i = tail call noundef zeroext i1 @_ZN4llvh21llvm_is_multithreadedEv() #21
  br i1 %call.i.i, label %if.then.i.i, label %if.else.i.i

if.then.i.i:                                      ; preds = %_ZN4llvh13ManagedStaticINS_3sys10SmartMutexILb1EEENS_14object_creatorIS3_EENS_14object_deleterIS3_EEEdeEv.exit
  %call2.i.i = tail call noundef zeroext i1 @_ZN4llvh3sys9MutexImpl7acquireEv(ptr noundef nonnull align 8 dereferenceable(8) %atomic-temp.i.0.i1.i) #21
  br label %_ZN4llvh3sys15SmartScopedLockILb1EEC2ERNS0_10SmartMutexILb1EEE.exit

if.else.i.i:                                      ; preds = %_ZN4llvh13ManagedStaticINS_3sys10SmartMutexILb1EEENS_14object_creatorIS3_EENS_14object_deleterIS3_EEEdeEv.exit
  %acquired.i.i = getelementptr inbounds i8, ptr %atomic-temp.i.0.i1.i, i64 8
  %2 = load i32, ptr %acquired.i.i, align 8
  %inc.i.i = add i32 %2, 1
  store i32 %inc.i.i, ptr %acquired.i.i, align 8
  br label %_ZN4llvh3sys15SmartScopedLockILb1EEC2ERNS0_10SmartMutexILb1EEE.exit

_ZN4llvh3sys15SmartScopedLockILb1EEC2ERNS0_10SmartMutexILb1EEE.exit: ; preds = %if.then.i.i, %if.else.i.i
  %FirstTimer = getelementptr inbounds i8, ptr %this, i64 64
  %3 = load ptr, ptr %FirstTimer, align 8
  %tobool.not = icmp eq ptr %3, null
  br i1 %tobool.not, label %if.end, label %if.then

if.then:                                          ; preds = %_ZN4llvh3sys15SmartScopedLockILb1EEC2ERNS0_10SmartMutexILb1EEE.exit
  %Next = getelementptr inbounds i8, ptr %T, i64 152
  %Prev = getelementptr inbounds i8, ptr %3, i64 144
  store ptr %Next, ptr %Prev, align 8
  %.pre = load ptr, ptr %FirstTimer, align 8
  br label %if.end

if.end:                                           ; preds = %if.then, %_ZN4llvh3sys15SmartScopedLockILb1EEC2ERNS0_10SmartMutexILb1EEE.exit
  %4 = phi ptr [ %.pre, %if.then ], [ null, %_ZN4llvh3sys15SmartScopedLockILb1EEC2ERNS0_10SmartMutexILb1EEE.exit ]
  %Next4 = getelementptr inbounds i8, ptr %T, i64 152
  store ptr %4, ptr %Next4, align 8
  %Prev6 = getelementptr inbounds i8, ptr %T, i64 144
  store ptr %FirstTimer, ptr %Prev6, align 8
  store ptr %T, ptr %FirstTimer, align 8
  %call.i.i4 = tail call noundef zeroext i1 @_ZN4llvh21llvm_is_multithreadedEv() #21
  br i1 %call.i.i4, label %if.then.i.i7, label %if.else.i.i5

if.then.i.i7:                                     ; preds = %if.end
  %call2.i.i8 = tail call noundef zeroext i1 @_ZN4llvh3sys9MutexImpl7releaseEv(ptr noundef nonnull align 8 dereferenceable(8) %atomic-temp.i.0.i1.i) #21
  br label %_ZN4llvh3sys15SmartScopedLockILb1EED2Ev.exit

if.else.i.i5:                                     ; preds = %if.end
  %acquired.i.i6 = getelementptr inbounds i8, ptr %atomic-temp.i.0.i1.i, i64 8
  %5 = load i32, ptr %acquired.i.i6, align 8
  %dec.i.i = add i32 %5, -1
  store i32 %dec.i.i, ptr %acquired.i.i6, align 8
  br label %_ZN4llvh3sys15SmartScopedLockILb1EED2Ev.exit

_ZN4llvh3sys15SmartScopedLockILb1EED2Ev.exit:     ; preds = %if.then.i.i7, %if.else.i.i5
  ret void
}